target datalayout = "e-m:e-p270:32:32-p271:32:32-p272:64:64-i64:64-i128:128-f80:128-n8:16:32:64-S128"
target triple = "x86_64-unknown-linux-gnu"

%"class.icu_75::ReorderingBuffer" = type { ptr, ptr, ptr, ptr, ptr, i32, i8, ptr, ptr }
%"class.icu_75::UObject" = type { ptr }
%"class.icu_75::Normalizer2Impl" = type { %"class.icu_75::UObject", i16, i16, i16, i16, i16, i16, i16, i16, i16, i16, i16, i16, ptr, ptr, ptr, ptr, %"struct.icu_75::UInitOnce", ptr }
%"struct.icu_75::UInitOnce" = type { %"struct.std::atomic", i32 }
%"struct.std::atomic" = type { %"struct.std::__atomic_base" }
%"struct.std::__atomic_base" = type { i32 }
%struct.UCPTrie = type { ptr, %union.UCPTrieData, i32, i32, i32, i16, i8, i8, i32, i16, i16, i32, i32 }
%union.UCPTrieData = type { ptr }

; Function Attrs: mustprogress nounwind uwtable
define linkonce_odr noundef zeroext i8 @_ZN6icu_7515Normalizer2Impl25getCCFromNormalYesOrMaybeEt(i16 noundef zeroext %norm16) #2 comdat align 2 {
entry:
  %norm16.addr = alloca i16, align 2
  store i16 %norm16, ptr %norm16.addr, align 2
  %0 = load i16, ptr %norm16.addr, align 2
  %conv = zext i16 %0 to i32
  %shr = ashr i32 %conv, 1
  %conv1 = trunc i32 %shr to i8
  ret i8 %conv1
}

; Function Attrs: mustprogress uwtable
define linkonce_odr noundef zeroext i8 @_ZN6icu_7515Normalizer2Impl19getCCFromYesOrMaybeEt(i16 noundef zeroext %norm16) #0 comdat align 2 {
entry:
  %norm16.addr = alloca i16, align 2
  store i16 %norm16, ptr %norm16.addr, align 2
  %0 = load i16, ptr %norm16.addr, align 2
  %conv = zext i16 %0 to i32
  %cmp = icmp sge i32 %conv, 64512
  br i1 %cmp, label %cond.true, label %cond.false

cond.true:                                        ; preds = %entry
  %1 = load i16, ptr %norm16.addr, align 2
  %call = call noundef zeroext i8 @_ZN6icu_7515Normalizer2Impl25getCCFromNormalYesOrMaybeEt(i16 noundef zeroext %1)
  %conv1 = zext i8 %call to i32
  br label %cond.end

cond.false:                                       ; preds = %entry
  br label %cond.end

cond.end:                                         ; preds = %cond.false, %cond.true
  %cond = phi i32 [ %conv1, %cond.true ], [ 0, %cond.false ]
  %conv2 = trunc i32 %cond to i8
  ret i8 %conv2
}

; Function Attrs: mustprogress uwtable
define linkonce_odr noundef zeroext i16 @_ZNK6icu_7515Normalizer2Impl9getNorm16Ei(ptr noundef nonnull align 8 dereferenceable(80) %this, i32 noundef %c) #0 comdat align 2 {
entry:
  %this.addr = alloca ptr, align 8
  %c.addr = alloca i32, align 4
  store ptr %this, ptr %this.addr, align 8
  store i32 %c, ptr %c.addr, align 4
  %this1 = load ptr, ptr %this.addr, align 8
  %0 = load i32, ptr %c.addr, align 4
  %and = and i32 %0, -1024
  %cmp = icmp eq i32 %and, 55296
  br i1 %cmp, label %cond.true, label %cond.false

cond.true:                                        ; preds = %entry
  br label %cond.end25

cond.false:                                       ; preds = %entry
  %normTrie = getelementptr inbounds %"class.icu_75::Normalizer2Impl", ptr %this1, i32 0, i32 13
  %1 = load ptr, ptr %normTrie, align 8
  %data = getelementptr inbounds %struct.UCPTrie, ptr %1, i32 0, i32 1
  %2 = load ptr, ptr %data, align 8
  %3 = load i32, ptr %c.addr, align 4
  %cmp2 = icmp ule i32 %3, 65535
  br i1 %cmp2, label %cond.true3, label %cond.false6

cond.true3:                                       ; preds = %cond.false
  %normTrie4 = getelementptr inbounds %"class.icu_75::Normalizer2Impl", ptr %this1, i32 0, i32 13
  %4 = load ptr, ptr %normTrie4, align 8
  %index = getelementptr inbounds %struct.UCPTrie, ptr %4, i32 0, i32 0
  %5 = load ptr, ptr %index, align 8
  %6 = load i32, ptr %c.addr, align 4
  %shr = ashr i32 %6, 6
  %idxprom = sext i32 %shr to i64
  %arrayidx = getelementptr inbounds i16, ptr %5, i64 %idxprom
  %7 = load i16, ptr %arrayidx, align 2
  %conv = zext i16 %7 to i32
  %8 = load i32, ptr %c.addr, align 4
  %and5 = and i32 %8, 63
  %add = add nsw i32 %conv, %and5
  br label %cond.end21

cond.false6:                                      ; preds = %cond.false
  %9 = load i32, ptr %c.addr, align 4
  %cmp7 = icmp ule i32 %9, 1114111
  br i1 %cmp7, label %cond.true8, label %cond.false15

cond.true8:                                       ; preds = %cond.false6
  %10 = load i32, ptr %c.addr, align 4
  %normTrie9 = getelementptr inbounds %"class.icu_75::Normalizer2Impl", ptr %this1, i32 0, i32 13
  %11 = load ptr, ptr %normTrie9, align 8
  %highStart = getelementptr inbounds %struct.UCPTrie, ptr %11, i32 0, i32 4
  %12 = load i32, ptr %highStart, align 8
  %cmp10 = icmp sge i32 %10, %12
  br i1 %cmp10, label %cond.true11, label %cond.false13

cond.true11:                                      ; preds = %cond.true8
  %normTrie12 = getelementptr inbounds %"class.icu_75::Normalizer2Impl", ptr %this1, i32 0, i32 13
  %13 = load ptr, ptr %normTrie12, align 8
  %dataLength = getelementptr inbounds %struct.UCPTrie, ptr %13, i32 0, i32 3
  %14 = load i32, ptr %dataLength, align 4
  %sub = sub nsw i32 %14, 2
  br label %cond.end

cond.false13:                                     ; preds = %cond.true8
  %normTrie14 = getelementptr inbounds %"class.icu_75::Normalizer2Impl", ptr %this1, i32 0, i32 13
  %15 = load ptr, ptr %normTrie14, align 8
  %16 = load i32, ptr %c.addr, align 4
  %call = call i32 @ucptrie_internalSmallIndex_75(ptr noundef %15, i32 noundef %16)
  br label %cond.end

cond.end:                                         ; preds = %cond.false13, %cond.true11
  %cond = phi i32 [ %sub, %cond.true11 ], [ %call, %cond.false13 ]
  br label %cond.end19

cond.false15:                                     ; preds = %cond.false6
  %normTrie16 = getelementptr inbounds %"class.icu_75::Normalizer2Impl", ptr %this1, i32 0, i32 13
  %17 = load ptr, ptr %normTrie16, align 8
  %dataLength17 = getelementptr inbounds %struct.UCPTrie, ptr %17, i32 0, i32 3
  %18 = load i32, ptr %dataLength17, align 4
  %sub18 = sub nsw i32 %18, 1
  br label %cond.end19

cond.end19:                                       ; preds = %cond.false15, %cond.end
  %cond20 = phi i32 [ %cond, %cond.end ], [ %sub18, %cond.false15 ]
  br label %cond.end21

cond.end21:                                       ; preds = %cond.end19, %cond.true3
  %cond22 = phi i32 [ %add, %cond.true3 ], [ %cond20, %cond.end19 ]
  %idxprom23 = sext i32 %cond22 to i64
  %arrayidx24 = getelementptr inbounds i16, ptr %2, i64 %idxprom23
  %19 = load i16, ptr %arrayidx24, align 2
  br label %cond.end25

cond.end25:                                       ; preds = %cond.end21, %cond.true
  %cond26 = phi i16 [ 1, %cond.true ], [ %19, %cond.end21 ]
  ret i16 %cond26
}

; Function Attrs: mustprogress uwtable
define linkonce_odr noundef zeroext i8 @_ZNK6icu_7515Normalizer2Impl21getCCFromYesOrMaybeCPEi(ptr noundef nonnull align 8 dereferenceable(80) %this, i32 noundef %c) #0 comdat align 2 {
entry:
  %retval = alloca i8, align 1
  %this.addr = alloca ptr, align 8
  %c.addr = alloca i32, align 4
  store ptr %this, ptr %this.addr, align 8
  store i32 %c, ptr %c.addr, align 4
  %this1 = load ptr, ptr %this.addr, align 8
  %0 = load i32, ptr %c.addr, align 4
  %minCompNoMaybeCP = getelementptr inbounds %"class.icu_75::Normalizer2Impl", ptr %this1, i32 0, i32 2
  %1 = load i16, ptr %minCompNoMaybeCP, align 2
  %conv = zext i16 %1 to i32
  %cmp = icmp slt i32 %0, %conv
  br i1 %cmp, label %if.then, label %if.end

if.then:                                          ; preds = %entry
  store i8 0, ptr %retval, align 1
  br label %return

if.end:                                           ; preds = %entry
  %2 = load i32, ptr %c.addr, align 4
  %call = call noundef zeroext i16 @_ZNK6icu_7515Normalizer2Impl9getNorm16Ei(ptr noundef nonnull align 8 dereferenceable(80) %this1, i32 noundef %2)
  %call2 = call noundef zeroext i8 @_ZN6icu_7515Normalizer2Impl19getCCFromYesOrMaybeEt(i16 noundef zeroext %call)
  store i8 %call2, ptr %retval, align 1
  br label %return

return:                                           ; preds = %if.end, %if.then
  %3 = load i8, ptr %retval, align 1
  ret i8 %3
}

; Function Attrs: mustprogress uwtable
define noundef zeroext i8 @_ZN6icu_7516ReorderingBuffer10previousCCEv(ptr noundef nonnull align 8 dereferenceable(64) %this) #0 align 2 {
entry:
  %retval = alloca i8, align 1
  %this.addr = alloca ptr, align 8
  %c = alloca i32, align 4
  %c2 = alloca i16, align 2
  store ptr %this, ptr %this.addr, align 8
  %this1 = load ptr, ptr %this.addr, align 8
  %codePointStart = getelementptr inbounds %"class.icu_75::ReorderingBuffer", ptr %this1, i32 0, i32 7
  %0 = load ptr, ptr %codePointStart, align 8
  %codePointLimit = getelementptr inbounds %"class.icu_75::ReorderingBuffer", ptr %this1, i32 0, i32 8
  store ptr %0, ptr %codePointLimit, align 8
  %reorderStart = getelementptr inbounds %"class.icu_75::ReorderingBuffer", ptr %this1, i32 0, i32 3
  %1 = load ptr, ptr %reorderStart, align 8
  %codePointStart2 = getelementptr inbounds %"class.icu_75::ReorderingBuffer", ptr %this1, i32 0, i32 7
  %2 = load ptr, ptr %codePointStart2, align 8
  %cmp = icmp uge ptr %1, %2
  br i1 %cmp, label %if.then, label %if.end

if.then:                                          ; preds = %entry
  store i8 0, ptr %retval, align 1
  br label %return

if.end:                                           ; preds = %entry
  %codePointStart3 = getelementptr inbounds %"class.icu_75::ReorderingBuffer", ptr %this1, i32 0, i32 7
  %3 = load ptr, ptr %codePointStart3, align 8
  %incdec.ptr = getelementptr inbounds i16, ptr %3, i32 -1
  store ptr %incdec.ptr, ptr %codePointStart3, align 8
  %4 = load i16, ptr %incdec.ptr, align 2
  %conv = zext i16 %4 to i32
  store i32 %conv, ptr %c, align 4
  %5 = load i32, ptr %c, align 4
  %and = and i32 %5, -1024
  %cmp4 = icmp eq i32 %and, 56320
  br i1 %cmp4, label %land.lhs.true, label %if.end16

land.lhs.true:                                    ; preds = %if.end
  %start = getelementptr inbounds %"class.icu_75::ReorderingBuffer", ptr %this1, i32 0, i32 2
  %6 = load ptr, ptr %start, align 8
  %codePointStart5 = getelementptr inbounds %"class.icu_75::ReorderingBuffer", ptr %this1, i32 0, i32 7
  %7 = load ptr, ptr %codePointStart5, align 8
  %cmp6 = icmp ult ptr %6, %7
  br i1 %cmp6, label %land.lhs.true7, label %if.end16

land.lhs.true7:                                   ; preds = %land.lhs.true
  %codePointStart8 = getelementptr inbounds %"class.icu_75::ReorderingBuffer", ptr %this1, i32 0, i32 7
  %8 = load ptr, ptr %codePointStart8, align 8
  %add.ptr = getelementptr inbounds i16, ptr %8, i64 -1
  %9 = load i16, ptr %add.ptr, align 2
  store i16 %9, ptr %c2, align 2
  %conv9 = zext i16 %9 to i32
  %and10 = and i32 %conv9, -1024
  %cmp11 = icmp eq i32 %and10, 55296
  br i1 %cmp11, label %if.then12, label %if.end16

if.then12:                                        ; preds = %land.lhs.true7
  %codePointStart13 = getelementptr inbounds %"class.icu_75::ReorderingBuffer", ptr %this1, i32 0, i32 7
  %10 = load ptr, ptr %codePointStart13, align 8
  %incdec.ptr14 = getelementptr inbounds i16, ptr %10, i32 -1
  store ptr %incdec.ptr14, ptr %codePointStart13, align 8
  %11 = load i16, ptr %c2, align 2
  %conv15 = zext i16 %11 to i32
  %shl = shl i32 %conv15, 10
  %12 = load i32, ptr %c, align 4
  %add = add nsw i32 %shl, %12
  %sub = sub nsw i32 %add, 56613888
  store i32 %sub, ptr %c, align 4
  br label %if.end16

if.end16:                                         ; preds = %if.then12, %land.lhs.true7, %land.lhs.true, %if.end
  %impl = getelementptr inbounds %"class.icu_75::ReorderingBuffer", ptr %this1, i32 0, i32 0
  %13 = load ptr, ptr %impl, align 8
  %14 = load i32, ptr %c, align 4
  %call = call noundef zeroext i8 @_ZNK6icu_7515Normalizer2Impl21getCCFromYesOrMaybeCPEi(ptr noundef nonnull align 8 dereferenceable(80) %13, i32 noundef %14)
  store i8 %call, ptr %retval, align 1
  br label %return

return:                                           ; preds = %if.end16, %if.then
  %15 = load i8, ptr %retval, align 1
  ret i8 %15
}