; Function Attrs: mustprogress uwtable
define noundef zeroext i8 @_ZN6icu_7516ReorderingBuffer10previousCCEv(ptr nocapture noundef nonnull align 8 dereferenceable(64) %this) local_unnamed_addr #0 align 2 {
entry:
  %codePointStart = getelementptr inbounds i8, ptr %this, i64 48
  %0 = load ptr, ptr %codePointStart, align 8
  %codePointLimit = getelementptr inbounds i8, ptr %this, i64 56
  store ptr %0, ptr %codePointLimit, align 8
  %reorderStart = getelementptr inbounds i8, ptr %this, i64 24
  %1 = load ptr, ptr %reorderStart, align 8
  %cmp.not = icmp ult ptr %1, %0
  br i1 %cmp.not, label %if.end, label %return

if.end:                                           ; preds = %entry
  %incdec.ptr = getelementptr inbounds i8, ptr %0, i64 -2
  store ptr %incdec.ptr, ptr %codePointStart, align 8
  %2 = load i16, ptr %incdec.ptr, align 2
  %conv = zext i16 %2 to i32
  %and = and i32 %conv, 64512
  %cmp4 = icmp eq i32 %and, 56320
  %start = getelementptr inbounds i8, ptr %this, i64 16
  %3 = load ptr, ptr %start, align 8
  %cmp6 = icmp ult ptr %3, %incdec.ptr
  %or.cond = select i1 %cmp4, i1 %cmp6, i1 false
  br i1 %or.cond, label %land.lhs.true7, label %if.end16

land.lhs.true7:                                   ; preds = %if.end
  %add.ptr = getelementptr inbounds i8, ptr %0, i64 -4
  %4 = load i16, ptr %add.ptr, align 2
  %conv9 = zext i16 %4 to i32
  %and10 = and i32 %conv9, 64512
  %cmp11 = icmp eq i32 %and10, 55296
  br i1 %cmp11, label %if.then12, label %if.end16

if.then12:                                        ; preds = %land.lhs.true7
  store ptr %add.ptr, ptr %codePointStart, align 8
  %shl = shl nuw nsw i32 %conv9, 10
  %add = add nuw nsw i32 %conv, -56613888
  %sub = add nsw i32 %add, %shl
  br label %if.end16

if.end16:                                         ; preds = %if.then12, %land.lhs.true7, %if.end
  %c.0 = phi i32 [ %sub, %if.then12 ], [ %conv, %land.lhs.true7 ], [ %conv, %if.end ]
  %5 = load ptr, ptr %this, align 8
  %minCompNoMaybeCP.i = getelementptr inbounds i8, ptr %5, i64 10
  %6 = load i16, ptr %minCompNoMaybeCP.i, align 2
  %conv.i = zext i16 %6 to i32
  %cmp.i = icmp ult i32 %c.0, %conv.i
  %and.i.i = and i32 %c.0, -1024
  %cmp.i.i = icmp eq i32 %and.i.i, 55296
  %or.cond.i = or i1 %cmp.i.i, %cmp.i
  br i1 %or.cond.i, label %return, label %cond.false.i.i

cond.false.i.i:                                   ; preds = %if.end16
  %normTrie.i.i = getelementptr inbounds i8, ptr %5, i64 32
  %7 = load ptr, ptr %normTrie.i.i, align 8
  %data.i.i = getelementptr inbounds i8, ptr %7, i64 8
  %8 = load ptr, ptr %data.i.i, align 8
  %cmp2.i.i = icmp ult i32 %c.0, 65536
  br i1 %cmp2.i.i, label %cond.true3.i.i, label %cond.false6.i.i

cond.true3.i.i:                                   ; preds = %cond.false.i.i
  %9 = load ptr, ptr %7, align 8
  %shr.i.i = lshr i32 %c.0, 6
  %idxprom.i.i = zext nneg i32 %shr.i.i to i64
  %arrayidx.i.i = getelementptr inbounds i16, ptr %9, i64 %idxprom.i.i
  %10 = load i16, ptr %arrayidx.i.i, align 2
  %conv.i.i = zext i16 %10 to i32
  %and5.i.i = and i32 %c.0, 63
  %add.i.i = add nuw nsw i32 %and5.i.i, %conv.i.i
  br label %_ZNK6icu_7515Normalizer2Impl9getNorm16Ei.exit.i

cond.false6.i.i:                                  ; preds = %cond.false.i.i
  %cmp7.i.i = icmp ult i32 %c.0, 1114112
  br i1 %cmp7.i.i, label %cond.true8.i.i, label %cond.false15.i.i

cond.true8.i.i:                                   ; preds = %cond.false6.i.i
  %highStart.i.i = getelementptr inbounds i8, ptr %7, i64 24
  %11 = load i32, ptr %highStart.i.i, align 8
  %cmp10.not.i.i = icmp sgt i32 %11, %c.0
  br i1 %cmp10.not.i.i, label %cond.false13.i.i, label %cond.true11.i.i

cond.true11.i.i:                                  ; preds = %cond.true8.i.i
  %dataLength.i.i = getelementptr inbounds i8, ptr %7, i64 20
  %12 = load i32, ptr %dataLength.i.i, align 4
  %sub.i.i = add nsw i32 %12, -2
  br label %_ZNK6icu_7515Normalizer2Impl9getNorm16Ei.exit.i

cond.false13.i.i:                                 ; preds = %cond.true8.i.i
  %call.i.i = tail call i32 @ucptrie_internalSmallIndex_75(ptr noundef nonnull %7, i32 noundef %c.0)
  br label %_ZNK6icu_7515Normalizer2Impl9getNorm16Ei.exit.i

cond.false15.i.i:                                 ; preds = %cond.false6.i.i
  %dataLength17.i.i = getelementptr inbounds i8, ptr %7, i64 20
  %13 = load i32, ptr %dataLength17.i.i, align 4
  %sub18.i.i = add nsw i32 %13, -1
  br label %_ZNK6icu_7515Normalizer2Impl9getNorm16Ei.exit.i

_ZNK6icu_7515Normalizer2Impl9getNorm16Ei.exit.i:  ; preds = %cond.false15.i.i, %cond.false13.i.i, %cond.true11.i.i, %cond.true3.i.i
  %cond22.i.i = phi i32 [ %add.i.i, %cond.true3.i.i ], [ %sub18.i.i, %cond.false15.i.i ], [ %sub.i.i, %cond.true11.i.i ], [ %call.i.i, %cond.false13.i.i ]
  %idxprom23.i.i = sext i32 %cond22.i.i to i64
  %arrayidx24.i.i = getelementptr inbounds i16, ptr %8, i64 %idxprom23.i.i
  %14 = load i16, ptr %arrayidx24.i.i, align 2
  %.fr.i = freeze i16 %14
  %cmp.i2.i = icmp ugt i16 %.fr.i, -1025
  %15 = lshr i16 %.fr.i, 1
  %conv1.i.i.i = trunc i16 %15 to i8
  %spec.select.i = select i1 %cmp.i2.i, i8 %conv1.i.i.i, i8 0
  br label %return

return:                                           ; preds = %_ZNK6icu_7515Normalizer2Impl9getNorm16Ei.exit.i, %if.end16, %entry
  %retval.0 = phi i8 [ 0, %entry ], [ 0, %if.end16 ], [ %spec.select.i, %_ZNK6icu_7515Normalizer2Impl9getNorm16Ei.exit.i ]
  ret i8 %retval.0
}